; Function Attrs: nounwind uwtable
define internal fastcc range(i32 -1, 1) i32 @setitem_take2_lock_held(ptr noundef %0, ptr noundef %1, ptr noundef %2) unnamed_addr #0 {
  %4 = getelementptr i8, ptr %1, i64 8
  %.val.i = load ptr, ptr %4, align 8, !tbaa !25
  %.not.i19 = icmp eq ptr %.val.i, @PyUnicode_Type
  br i1 %.not.i19, label %5, label %_PyObject_HashFast.exit

5:                                                ; preds = %3
  %6 = getelementptr inbounds nuw i8, ptr %1, i64 24
  %7 = load i64, ptr %6, align 8, !tbaa !55
  %.not7.not.i = icmp eq i64 %7, -1
  br i1 %.not7.not.i, label %_PyObject_HashFast.exit, label %_PyObject_HashFast.exit.thread

_PyObject_HashFast.exit:                          ; preds = %3, %5
  %8 = tail call i64 @PyObject_Hash(ptr noundef nonnull %1) #23
  %9 = icmp eq i64 %8, -1
  br i1 %9, label %10, label %_PyObject_HashFast.exit.thread

10:                                               ; preds = %_PyObject_HashFast.exit
  %11 = load i32, ptr %1, align 8, !tbaa !41
  %.not.i16 = icmp sgt i32 %11, -1
  br i1 %.not.i16, label %12, label %Py_DECREF.exit17

12:                                               ; preds = %10
  %13 = add nsw i32 %11, -1
  store i32 %13, ptr %1, align 8, !tbaa !41
  %14 = icmp eq i32 %13, 0
  br i1 %14, label %15, label %Py_DECREF.exit17

15:                                               ; preds = %12
  tail call void @_Py_Dealloc(ptr noundef nonnull %1) #23
  br label %Py_DECREF.exit17

Py_DECREF.exit17:                                 ; preds = %10, %12, %15
  %16 = load i32, ptr %2, align 8, !tbaa !41
  %.not.i = icmp sgt i32 %16, -1
  br i1 %.not.i, label %17, label %Py_DECREF.exit

17:                                               ; preds = %Py_DECREF.exit17
  %18 = add nsw i32 %16, -1
  store i32 %18, ptr %2, align 8, !tbaa !41
  %19 = icmp eq i32 %18, 0
  br i1 %19, label %20, label %Py_DECREF.exit

20:                                               ; preds = %17
  tail call void @_Py_Dealloc(ptr noundef nonnull %2) #23
  br label %Py_DECREF.exit

_PyObject_HashFast.exit.thread:                   ; preds = %5, %_PyObject_HashFast.exit
  %.1.i21 = phi i64 [ %8, %_PyObject_HashFast.exit ], [ %7, %5 ]
  %21 = getelementptr inbounds nuw i8, ptr %0, i64 32
  %22 = load ptr, ptr %21, align 8, !tbaa !36
  %23 = icmp eq ptr %22, @empty_keys_struct
  br i1 %23, label %24, label %26

24:                                               ; preds = %_PyObject_HashFast.exit.thread
  %25 = tail call fastcc i32 @insert_to_emptydict(ptr noundef nonnull %0, ptr noundef nonnull %1, i64 noundef %.1.i21, ptr noundef %2)
  br label %Py_DECREF.exit

26:                                               ; preds = %_PyObject_HashFast.exit.thread
  %27 = tail call fastcc i32 @insertdict(ptr noundef nonnull %0, ptr noundef nonnull %1, i64 noundef %.1.i21, ptr noundef %2)
  br label %Py_DECREF.exit

Py_DECREF.exit:                                   ; preds = %20, %17, %Py_DECREF.exit17, %24, %26
  %.0 = phi i32 [ %25, %24 ], [ %27, %26 ], [ -1, %Py_DECREF.exit17 ], [ -1, %17 ], [ -1, %20 ]
  ret i32 %.0
}